target datalayout = "e-m:e-p270:32:32-p271:32:32-p272:64:64-i64:64-i128:128-f80:128-n8:16:32:64-S128"
target triple = "x86_64-pc-linux-gnu"

%struct.Gia_Obj_t_ = type <{ i64, i32 }>

; Function Attrs: nounwind uwtable
define internal ptr @Gia_NotCond(ptr noundef %0, i32 noundef %1) #0 {
  %3 = alloca ptr, align 8
  %4 = alloca i32, align 4
  store ptr %0, ptr %3, align 8
  store i32 %1, ptr %4, align 4
  %5 = load ptr, ptr %3, align 8
  %6 = ptrtoint ptr %5 to i64
  %7 = load i32, ptr %4, align 4
  %8 = sext i32 %7 to i64
  %9 = xor i64 %6, %8
  %10 = inttoptr i64 %9 to ptr
  ret ptr %10
}

; Function Attrs: nounwind uwtable
define internal i32 @Gia_ObjFaninC0(ptr noundef %0) #0 {
  %2 = alloca ptr, align 8
  store ptr %0, ptr %2, align 8
  %3 = load ptr, ptr %2, align 8
  %4 = load i64, ptr %3, align 4
  %5 = lshr i64 %4, 29
  %6 = and i64 %5, 1
  %7 = trunc i64 %6 to i32
  ret i32 %7
}

; Function Attrs: nounwind uwtable
define internal ptr @Gia_ObjChild1(ptr noundef %0) #0 {
  %2 = alloca ptr, align 8
  store ptr %0, ptr %2, align 8
  %3 = load ptr, ptr %2, align 8
  %4 = call ptr @Gia_ObjFanin1(ptr noundef %3)
  %5 = load ptr, ptr %2, align 8
  %6 = call i32 @Gia_ObjFaninC1(ptr noundef %5)
  %7 = call ptr @Gia_NotCond(ptr noundef %4, i32 noundef %6)
  ret ptr %7
}

; Function Attrs: nounwind uwtable
define internal ptr @Gia_Not(ptr noundef %0) #0 {
  %2 = alloca ptr, align 8
  store ptr %0, ptr %2, align 8
  %3 = load ptr, ptr %2, align 8
  %4 = ptrtoint ptr %3 to i64
  %5 = xor i64 %4, 1
  %6 = inttoptr i64 %5 to ptr
  ret ptr %6
}

; Function Attrs: nounwind uwtable
define internal ptr @Gia_ObjChild0(ptr noundef %0) #0 {
  %2 = alloca ptr, align 8
  store ptr %0, ptr %2, align 8
  %3 = load ptr, ptr %2, align 8
  %4 = call ptr @Gia_ObjFanin0(ptr noundef %3)
  %5 = load ptr, ptr %2, align 8
  %6 = call i32 @Gia_ObjFaninC0(ptr noundef %5)
  %7 = call ptr @Gia_NotCond(ptr noundef %4, i32 noundef %6)
  ret ptr %7
}

; Function Attrs: nounwind uwtable
define internal i32 @Gia_ObjFaninC1(ptr noundef %0) #0 {
  %2 = alloca ptr, align 8
  store ptr %0, ptr %2, align 8
  %3 = load ptr, ptr %2, align 8
  %4 = load i64, ptr %3, align 4
  %5 = lshr i64 %4, 61
  %6 = and i64 %5, 1
  %7 = trunc i64 %6 to i32
  ret i32 %7
}

; Function Attrs: nounwind uwtable
define internal ptr @Gia_ObjFanin1(ptr noundef %0) #0 {
  %2 = alloca ptr, align 8
  store ptr %0, ptr %2, align 8
  %3 = load ptr, ptr %2, align 8
  %4 = load ptr, ptr %2, align 8
  %5 = load i64, ptr %4, align 4
  %6 = lshr i64 %5, 32
  %7 = and i64 %6, 536870911
  %8 = trunc i64 %7 to i32
  %9 = sext i32 %8 to i64
  %10 = sub i64 0, %9
  %11 = getelementptr inbounds %struct.Gia_Obj_t_, ptr %3, i64 %10
  ret ptr %11
}

; Function Attrs: nounwind uwtable
define internal ptr @Gia_ObjFanin0(ptr noundef %0) #0 {
  %2 = alloca ptr, align 8
  store ptr %0, ptr %2, align 8
  %3 = load ptr, ptr %2, align 8
  %4 = load ptr, ptr %2, align 8
  %5 = load i64, ptr %4, align 4
  %6 = and i64 %5, 536870911
  %7 = trunc i64 %6 to i32
  %8 = sext i32 %7 to i64
  %9 = sub i64 0, %8
  %10 = getelementptr inbounds %struct.Gia_Obj_t_, ptr %3, i64 %9
  ret ptr %10
}

; Function Attrs: nounwind uwtable
define ptr @Gia_ObjRecognizeMux(ptr noundef %0, ptr noundef %1, ptr noundef %2) #0 {
  %4 = alloca ptr, align 8
  %5 = alloca ptr, align 8
  %6 = alloca ptr, align 8
  %7 = alloca ptr, align 8
  %8 = alloca ptr, align 8
  %9 = alloca ptr, align 8
  store ptr %0, ptr %5, align 8
  store ptr %1, ptr %6, align 8
  store ptr %2, ptr %7, align 8
  %10 = load ptr, ptr %5, align 8
  %11 = call ptr @Gia_ObjFanin0(ptr noundef %10)
  store ptr %11, ptr %8, align 8
  %12 = load ptr, ptr %5, align 8
  %13 = call ptr @Gia_ObjFanin1(ptr noundef %12)
  store ptr %13, ptr %9, align 8
  %14 = load ptr, ptr %8, align 8
  %15 = call ptr @Gia_ObjFanin1(ptr noundef %14)
  %16 = load ptr, ptr %9, align 8
  %17 = call ptr @Gia_ObjFanin1(ptr noundef %16)
  %18 = icmp eq ptr %15, %17
  br i1 %18, label %19, label %52

19:                                               ; preds = %3
  %20 = load ptr, ptr %8, align 8
  %21 = call i32 @Gia_ObjFaninC1(ptr noundef %20)
  %22 = load ptr, ptr %9, align 8
  %23 = call i32 @Gia_ObjFaninC1(ptr noundef %22)
  %24 = xor i32 %21, %23
  %25 = icmp ne i32 %24, 0
  br i1 %25, label %26, label %52

26:                                               ; preds = %19
  %27 = load ptr, ptr %8, align 8
  %28 = call i32 @Gia_ObjFaninC1(ptr noundef %27)
  %29 = icmp ne i32 %28, 0
  br i1 %29, label %30, label %41

30:                                               ; preds = %26
  %31 = load ptr, ptr %9, align 8
  %32 = call ptr @Gia_ObjChild0(ptr noundef %31)
  %33 = call ptr @Gia_Not(ptr noundef %32)
  %34 = load ptr, ptr %6, align 8
  store ptr %33, ptr %34, align 8
  %35 = load ptr, ptr %8, align 8
  %36 = call ptr @Gia_ObjChild0(ptr noundef %35)
  %37 = call ptr @Gia_Not(ptr noundef %36)
  %38 = load ptr, ptr %7, align 8
  store ptr %37, ptr %38, align 8
  %39 = load ptr, ptr %9, align 8
  %40 = call ptr @Gia_ObjChild1(ptr noundef %39)
  store ptr %40, ptr %4, align 8
  br label %173

41:                                               ; preds = %26
  %42 = load ptr, ptr %8, align 8
  %43 = call ptr @Gia_ObjChild0(ptr noundef %42)
  %44 = call ptr @Gia_Not(ptr noundef %43)
  %45 = load ptr, ptr %6, align 8
  store ptr %44, ptr %45, align 8
  %46 = load ptr, ptr %9, align 8
  %47 = call ptr @Gia_ObjChild0(ptr noundef %46)
  %48 = call ptr @Gia_Not(ptr noundef %47)
  %49 = load ptr, ptr %7, align 8
  store ptr %48, ptr %49, align 8
  %50 = load ptr, ptr %8, align 8
  %51 = call ptr @Gia_ObjChild1(ptr noundef %50)
  store ptr %51, ptr %4, align 8
  br label %173

52:                                               ; preds = %19, %3
  %53 = load ptr, ptr %8, align 8
  %54 = call ptr @Gia_ObjFanin0(ptr noundef %53)
  %55 = load ptr, ptr %9, align 8
  %56 = call ptr @Gia_ObjFanin0(ptr noundef %55)
  %57 = icmp eq ptr %54, %56
  br i1 %57, label %58, label %91

58:                                               ; preds = %52
  %59 = load ptr, ptr %8, align 8
  %60 = call i32 @Gia_ObjFaninC0(ptr noundef %59)
  %61 = load ptr, ptr %9, align 8
  %62 = call i32 @Gia_ObjFaninC0(ptr noundef %61)
  %63 = xor i32 %60, %62
  %64 = icmp ne i32 %63, 0
  br i1 %64, label %65, label %91

65:                                               ; preds = %58
  %66 = load ptr, ptr %8, align 8
  %67 = call i32 @Gia_ObjFaninC0(ptr noundef %66)
  %68 = icmp ne i32 %67, 0
  br i1 %68, label %69, label %80

69:                                               ; preds = %65
  %70 = load ptr, ptr %9, align 8
  %71 = call ptr @Gia_ObjChild1(ptr noundef %70)
  %72 = call ptr @Gia_Not(ptr noundef %71)
  %73 = load ptr, ptr %6, align 8
  store ptr %72, ptr %73, align 8
  %74 = load ptr, ptr %8, align 8
  %75 = call ptr @Gia_ObjChild1(ptr noundef %74)
  %76 = call ptr @Gia_Not(ptr noundef %75)
  %77 = load ptr, ptr %7, align 8
  store ptr %76, ptr %77, align 8
  %78 = load ptr, ptr %9, align 8
  %79 = call ptr @Gia_ObjChild0(ptr noundef %78)
  store ptr %79, ptr %4, align 8
  br label %173

80:                                               ; preds = %65
  %81 = load ptr, ptr %8, align 8
  %82 = call ptr @Gia_ObjChild1(ptr noundef %81)
  %83 = call ptr @Gia_Not(ptr noundef %82)
  %84 = load ptr, ptr %6, align 8
  store ptr %83, ptr %84, align 8
  %85 = load ptr, ptr %9, align 8
  %86 = call ptr @Gia_ObjChild1(ptr noundef %85)
  %87 = call ptr @Gia_Not(ptr noundef %86)
  %88 = load ptr, ptr %7, align 8
  store ptr %87, ptr %88, align 8
  %89 = load ptr, ptr %8, align 8
  %90 = call ptr @Gia_ObjChild0(ptr noundef %89)
  store ptr %90, ptr %4, align 8
  br label %173

91:                                               ; preds = %58, %52
  %92 = load ptr, ptr %8, align 8
  %93 = call ptr @Gia_ObjFanin0(ptr noundef %92)
  %94 = load ptr, ptr %9, align 8
  %95 = call ptr @Gia_ObjFanin1(ptr noundef %94)
  %96 = icmp eq ptr %93, %95
  br i1 %96, label %97, label %130

97:                                               ; preds = %91
  %98 = load ptr, ptr %8, align 8
  %99 = call i32 @Gia_ObjFaninC0(ptr noundef %98)
  %100 = load ptr, ptr %9, align 8
  %101 = call i32 @Gia_ObjFaninC1(ptr noundef %100)
  %102 = xor i32 %99, %101
  %103 = icmp ne i32 %102, 0
  br i1 %103, label %104, label %130

104:                                              ; preds = %97
  %105 = load ptr, ptr %8, align 8
  %106 = call i32 @Gia_ObjFaninC0(ptr noundef %105)
  %107 = icmp ne i32 %106, 0
  br i1 %107, label %108, label %119

108:                                              ; preds = %104
  %109 = load ptr, ptr %9, align 8
  %110 = call ptr @Gia_ObjChild0(ptr noundef %109)
  %111 = call ptr @Gia_Not(ptr noundef %110)
  %112 = load ptr, ptr %6, align 8
  store ptr %111, ptr %112, align 8
  %113 = load ptr, ptr %8, align 8
  %114 = call ptr @Gia_ObjChild1(ptr noundef %113)
  %115 = call ptr @Gia_Not(ptr noundef %114)
  %116 = load ptr, ptr %7, align 8
  store ptr %115, ptr %116, align 8
  %117 = load ptr, ptr %9, align 8
  %118 = call ptr @Gia_ObjChild1(ptr noundef %117)
  store ptr %118, ptr %4, align 8
  br label %173

119:                                              ; preds = %104
  %120 = load ptr, ptr %8, align 8
  %121 = call ptr @Gia_ObjChild1(ptr noundef %120)
  %122 = call ptr @Gia_Not(ptr noundef %121)
  %123 = load ptr, ptr %6, align 8
  store ptr %122, ptr %123, align 8
  %124 = load ptr, ptr %9, align 8
  %125 = call ptr @Gia_ObjChild0(ptr noundef %124)
  %126 = call ptr @Gia_Not(ptr noundef %125)
  %127 = load ptr, ptr %7, align 8
  store ptr %126, ptr %127, align 8
  %128 = load ptr, ptr %8, align 8
  %129 = call ptr @Gia_ObjChild0(ptr noundef %128)
  store ptr %129, ptr %4, align 8
  br label %173

130:                                              ; preds = %97, %91
  %131 = load ptr, ptr %8, align 8
  %132 = call ptr @Gia_ObjFanin1(ptr noundef %131)
  %133 = load ptr, ptr %9, align 8
  %134 = call ptr @Gia_ObjFanin0(ptr noundef %133)
  %135 = icmp eq ptr %132, %134
  br i1 %135, label %136, label %169

136:                                              ; preds = %130
  %137 = load ptr, ptr %8, align 8
  %138 = call i32 @Gia_ObjFaninC1(ptr noundef %137)
  %139 = load ptr, ptr %9, align 8
  %140 = call i32 @Gia_ObjFaninC0(ptr noundef %139)
  %141 = xor i32 %138, %140
  %142 = icmp ne i32 %141, 0
  br i1 %142, label %143, label %169

143:                                              ; preds = %136
  %144 = load ptr, ptr %8, align 8
  %145 = call i32 @Gia_ObjFaninC1(ptr noundef %144)
  %146 = icmp ne i32 %145, 0
  br i1 %146, label %147, label %158

147:                                              ; preds = %143
  %148 = load ptr, ptr %9, align 8
  %149 = call ptr @Gia_ObjChild1(ptr noundef %148)
  %150 = call ptr @Gia_Not(ptr noundef %149)
  %151 = load ptr, ptr %6, align 8
  store ptr %150, ptr %151, align 8
  %152 = load ptr, ptr %8, align 8
  %153 = call ptr @Gia_ObjChild0(ptr noundef %152)
  %154 = call ptr @Gia_Not(ptr noundef %153)
  %155 = load ptr, ptr %7, align 8
  store ptr %154, ptr %155, align 8
  %156 = load ptr, ptr %9, align 8
  %157 = call ptr @Gia_ObjChild0(ptr noundef %156)
  store ptr %157, ptr %4, align 8
  br label %173

158:                                              ; preds = %143
  %159 = load ptr, ptr %8, align 8
  %160 = call ptr @Gia_ObjChild0(ptr noundef %159)
  %161 = call ptr @Gia_Not(ptr noundef %160)
  %162 = load ptr, ptr %6, align 8
  store ptr %161, ptr %162, align 8
  %163 = load ptr, ptr %9, align 8
  %164 = call ptr @Gia_ObjChild1(ptr noundef %163)
  %165 = call ptr @Gia_Not(ptr noundef %164)
  %166 = load ptr, ptr %7, align 8
  store ptr %165, ptr %166, align 8
  %167 = load ptr, ptr %8, align 8
  %168 = call ptr @Gia_ObjChild1(ptr noundef %167)
  store ptr %168, ptr %4, align 8
  br label %173

169:                                              ; preds = %136, %130
  br label %170

170:                                              ; preds = %169
  br label %171

171:                                              ; preds = %170
  br label %172

172:                                              ; preds = %171
  store ptr null, ptr %4, align 8
  br label %173

173:                                              ; preds = %172, %158, %147, %119, %108, %80, %69, %41, %30
  %174 = load ptr, ptr %4, align 8
  ret ptr %174
}