; Function Attrs: mustprogress nofree norecurse nosync nounwind willreturn memory(argmem: readwrite) uwtable
define ptr @Gia_ObjRecognizeMux(ptr noundef %0, ptr noundef writeonly captures(none) %1, ptr noundef writeonly captures(none) %2) local_unnamed_addr #17 {
  %4 = load i64, ptr %0, align 4
  %5 = and i64 %4, 536870911
  %6 = sub nsw i64 0, %5
  %7 = getelementptr inbounds %struct.Gia_Obj_t_, ptr %0, i64 %6
  %8 = lshr i64 %4, 32
  %9 = and i64 %8, 536870911
  %10 = sub nsw i64 0, %9
  %11 = getelementptr inbounds %struct.Gia_Obj_t_, ptr %0, i64 %10
  %12 = load i64, ptr %7, align 4
  %13 = lshr i64 %12, 32
  %14 = and i64 %13, 536870911
  %15 = sub nsw i64 0, %14
  %16 = getelementptr inbounds %struct.Gia_Obj_t_, ptr %7, i64 %15
  %17 = load i64, ptr %11, align 4
  %18 = lshr i64 %17, 32
  %19 = and i64 %18, 536870911
  %20 = sub nsw i64 0, %19
  %21 = getelementptr inbounds %struct.Gia_Obj_t_, ptr %11, i64 %20
  %22 = icmp eq ptr %16, %21
  br i1 %22, label %23, label %91

23:                                               ; preds = %3
  %24 = lshr i64 %12, 61
  %25 = trunc nuw nsw i64 %24 to i32
  %26 = and i32 %25, 1
  %27 = lshr i64 %17, 61
  %28 = trunc nuw nsw i64 %27 to i32
  %29 = and i32 %28, 1
  %.not = icmp eq i32 %26, %29
  br i1 %.not, label %91, label %30

30:                                               ; preds = %23
  %.not69 = icmp eq i32 %26, 0
  br i1 %.not69, label %61, label %31

31:                                               ; preds = %30
  %32 = and i64 %17, 536870911
  %33 = sub nsw i64 0, %32
  %34 = getelementptr inbounds %struct.Gia_Obj_t_, ptr %11, i64 %33
  %35 = lshr i64 %17, 29
  %36 = and i64 %35, 1
  %37 = ptrtoint ptr %34 to i64
  %38 = xor i64 %36, %37
  %39 = xor i64 %38, 1
  %40 = inttoptr i64 %39 to ptr
  store ptr %40, ptr %1, align 8
  %41 = load i64, ptr %7, align 4
  %42 = and i64 %41, 536870911
  %43 = sub nsw i64 0, %42
  %44 = getelementptr inbounds %struct.Gia_Obj_t_, ptr %7, i64 %43
  %45 = lshr i64 %41, 29
  %46 = and i64 %45, 1
  %47 = ptrtoint ptr %44 to i64
  %48 = xor i64 %46, %47
  %49 = xor i64 %48, 1
  %50 = inttoptr i64 %49 to ptr
  store ptr %50, ptr %2, align 8
  %51 = load i64, ptr %11, align 4
  %52 = lshr i64 %51, 32
  %53 = and i64 %52, 536870911
  %54 = sub nsw i64 0, %53
  %55 = getelementptr inbounds %struct.Gia_Obj_t_, ptr %11, i64 %54
  %56 = lshr i64 %51, 61
  %57 = and i64 %56, 1
  %58 = ptrtoint ptr %55 to i64
  %59 = xor i64 %57, %58
  %60 = inttoptr i64 %59 to ptr
  br label %289

61:                                               ; preds = %30
  %62 = and i64 %12, 536870911
  %63 = sub nsw i64 0, %62
  %64 = getelementptr inbounds %struct.Gia_Obj_t_, ptr %7, i64 %63
  %65 = lshr i64 %12, 29
  %66 = and i64 %65, 1
  %67 = ptrtoint ptr %64 to i64
  %68 = xor i64 %66, %67
  %69 = xor i64 %68, 1
  %70 = inttoptr i64 %69 to ptr
  store ptr %70, ptr %1, align 8
  %71 = load i64, ptr %11, align 4
  %72 = and i64 %71, 536870911
  %73 = sub nsw i64 0, %72
  %74 = getelementptr inbounds %struct.Gia_Obj_t_, ptr %11, i64 %73
  %75 = lshr i64 %71, 29
  %76 = and i64 %75, 1
  %77 = ptrtoint ptr %74 to i64
  %78 = xor i64 %76, %77
  %79 = xor i64 %78, 1
  %80 = inttoptr i64 %79 to ptr
  store ptr %80, ptr %2, align 8
  %81 = load i64, ptr %7, align 4
  %82 = lshr i64 %81, 32
  %83 = and i64 %82, 536870911
  %84 = sub nsw i64 0, %83
  %85 = getelementptr inbounds %struct.Gia_Obj_t_, ptr %7, i64 %84
  %86 = lshr i64 %81, 61
  %87 = and i64 %86, 1
  %88 = ptrtoint ptr %85 to i64
  %89 = xor i64 %87, %88
  %90 = inttoptr i64 %89 to ptr
  br label %289

91:                                               ; preds = %23, %3
  %92 = and i64 %12, 536870911
  %93 = sub nsw i64 0, %92
  %94 = getelementptr inbounds %struct.Gia_Obj_t_, ptr %7, i64 %93
  %95 = and i64 %17, 536870911
  %96 = sub nsw i64 0, %95
  %97 = getelementptr inbounds %struct.Gia_Obj_t_, ptr %11, i64 %96
  %98 = icmp eq ptr %94, %97
  br i1 %98, label %99, label %161

99:                                               ; preds = %91
  %100 = trunc i64 %12 to i32
  %101 = lshr i32 %100, 29
  %102 = and i32 %101, 1
  %103 = trunc i64 %17 to i32
  %104 = lshr i32 %103, 29
  %105 = and i32 %104, 1
  %.not63 = icmp eq i32 %102, %105
  br i1 %.not63, label %161, label %106

106:                                              ; preds = %99
  %.not68 = icmp eq i32 %102, 0
  br i1 %.not68, label %134, label %107

107:                                              ; preds = %106
  %108 = lshr i64 %17, 61
  %109 = and i64 %108, 1
  %110 = ptrtoint ptr %21 to i64
  %111 = xor i64 %109, %110
  %112 = xor i64 %111, 1
  %113 = inttoptr i64 %112 to ptr
  store ptr %113, ptr %1, align 8
  %114 = load i64, ptr %7, align 4
  %115 = lshr i64 %114, 32
  %116 = and i64 %115, 536870911
  %117 = sub nsw i64 0, %116
  %118 = getelementptr inbounds %struct.Gia_Obj_t_, ptr %7, i64 %117
  %119 = lshr i64 %114, 61
  %120 = and i64 %119, 1
  %121 = ptrtoint ptr %118 to i64
  %122 = xor i64 %120, %121
  %123 = xor i64 %122, 1
  %124 = inttoptr i64 %123 to ptr
  store ptr %124, ptr %2, align 8
  %125 = load i64, ptr %11, align 4
  %126 = and i64 %125, 536870911
  %127 = sub nsw i64 0, %126
  %128 = getelementptr inbounds %struct.Gia_Obj_t_, ptr %11, i64 %127
  %129 = lshr i64 %125, 29
  %130 = and i64 %129, 1
  %131 = ptrtoint ptr %128 to i64
  %132 = xor i64 %130, %131
  %133 = inttoptr i64 %132 to ptr
  br label %289

134:                                              ; preds = %106
  %135 = lshr i64 %12, 61
  %136 = and i64 %135, 1
  %137 = ptrtoint ptr %16 to i64
  %138 = xor i64 %136, %137
  %139 = xor i64 %138, 1
  %140 = inttoptr i64 %139 to ptr
  store ptr %140, ptr %1, align 8
  %141 = load i64, ptr %11, align 4
  %142 = lshr i64 %141, 32
  %143 = and i64 %142, 536870911
  %144 = sub nsw i64 0, %143
  %145 = getelementptr inbounds %struct.Gia_Obj_t_, ptr %11, i64 %144
  %146 = lshr i64 %141, 61
  %147 = and i64 %146, 1
  %148 = ptrtoint ptr %145 to i64
  %149 = xor i64 %147, %148
  %150 = xor i64 %149, 1
  %151 = inttoptr i64 %150 to ptr
  store ptr %151, ptr %2, align 8
  %152 = load i64, ptr %7, align 4
  %153 = and i64 %152, 536870911
  %154 = sub nsw i64 0, %153
  %155 = getelementptr inbounds %struct.Gia_Obj_t_, ptr %7, i64 %154
  %156 = lshr i64 %152, 29
  %157 = and i64 %156, 1
  %158 = ptrtoint ptr %155 to i64
  %159 = xor i64 %157, %158
  %160 = inttoptr i64 %159 to ptr
  br label %289

161:                                              ; preds = %99, %91
  %162 = icmp eq ptr %94, %21
  br i1 %162, label %163, label %225

163:                                              ; preds = %161
  %164 = trunc i64 %12 to i32
  %165 = lshr i32 %164, 29
  %166 = and i32 %165, 1
  %167 = lshr i64 %17, 61
  %168 = trunc nuw nsw i64 %167 to i32
  %169 = and i32 %168, 1
  %.not64 = icmp eq i32 %166, %169
  br i1 %.not64, label %225, label %170

170:                                              ; preds = %163
  %.not67 = icmp eq i32 %166, 0
  br i1 %.not67, label %199, label %171

171:                                              ; preds = %170
  %172 = lshr i64 %17, 29
  %173 = and i64 %172, 1
  %174 = ptrtoint ptr %97 to i64
  %175 = xor i64 %173, %174
  %176 = xor i64 %175, 1
  %177 = inttoptr i64 %176 to ptr
  store ptr %177, ptr %1, align 8
  %178 = load i64, ptr %7, align 4
  %179 = lshr i64 %178, 32
  %180 = and i64 %179, 536870911
  %181 = sub nsw i64 0, %180
  %182 = getelementptr inbounds %struct.Gia_Obj_t_, ptr %7, i64 %181
  %183 = lshr i64 %178, 61
  %184 = and i64 %183, 1
  %185 = ptrtoint ptr %182 to i64
  %186 = xor i64 %184, %185
  %187 = xor i64 %186, 1
  %188 = inttoptr i64 %187 to ptr
  store ptr %188, ptr %2, align 8
  %189 = load i64, ptr %11, align 4
  %190 = lshr i64 %189, 32
  %191 = and i64 %190, 536870911
  %192 = sub nsw i64 0, %191
  %193 = getelementptr inbounds %struct.Gia_Obj_t_, ptr %11, i64 %192
  %194 = lshr i64 %189, 61
  %195 = and i64 %194, 1
  %196 = ptrtoint ptr %193 to i64
  %197 = xor i64 %195, %196
  %198 = inttoptr i64 %197 to ptr
  br label %289

199:                                              ; preds = %170
  %200 = lshr i64 %12, 61
  %201 = and i64 %200, 1
  %202 = ptrtoint ptr %16 to i64
  %203 = xor i64 %201, %202
  %204 = xor i64 %203, 1
  %205 = inttoptr i64 %204 to ptr
  store ptr %205, ptr %1, align 8
  %206 = load i64, ptr %11, align 4
  %207 = and i64 %206, 536870911
  %208 = sub nsw i64 0, %207
  %209 = getelementptr inbounds %struct.Gia_Obj_t_, ptr %11, i64 %208
  %210 = lshr i64 %206, 29
  %211 = and i64 %210, 1
  %212 = ptrtoint ptr %209 to i64
  %213 = xor i64 %211, %212
  %214 = xor i64 %213, 1
  %215 = inttoptr i64 %214 to ptr
  store ptr %215, ptr %2, align 8
  %216 = load i64, ptr %7, align 4
  %217 = and i64 %216, 536870911
  %218 = sub nsw i64 0, %217
  %219 = getelementptr inbounds %struct.Gia_Obj_t_, ptr %7, i64 %218
  %220 = lshr i64 %216, 29
  %221 = and i64 %220, 1
  %222 = ptrtoint ptr %219 to i64
  %223 = xor i64 %221, %222
  %224 = inttoptr i64 %223 to ptr
  br label %289

225:                                              ; preds = %163, %161
  %226 = icmp eq ptr %16, %97
  br i1 %226, label %227, label %289

227:                                              ; preds = %225
  %228 = lshr i64 %12, 61
  %229 = trunc nuw nsw i64 %228 to i32
  %230 = and i32 %229, 1
  %231 = trunc i64 %17 to i32
  %232 = lshr i32 %231, 29
  %233 = and i32 %232, 1
  %.not65 = icmp eq i32 %230, %233
  br i1 %.not65, label %289, label %234

234:                                              ; preds = %227
  %.not66 = icmp eq i32 %230, 0
  br i1 %.not66, label %261, label %235

235:                                              ; preds = %234
  %236 = lshr i64 %17, 61
  %237 = and i64 %236, 1
  %238 = ptrtoint ptr %21 to i64
  %239 = xor i64 %237, %238
  %240 = xor i64 %239, 1
  %241 = inttoptr i64 %240 to ptr
  store ptr %241, ptr %1, align 8
  %242 = load i64, ptr %7, align 4
  %243 = and i64 %242, 536870911
  %244 = sub nsw i64 0, %243
  %245 = getelementptr inbounds %struct.Gia_Obj_t_, ptr %7, i64 %244
  %246 = lshr i64 %242, 29
  %247 = and i64 %246, 1
  %248 = ptrtoint ptr %245 to i64
  %249 = xor i64 %247, %248
  %250 = xor i64 %249, 1
  %251 = inttoptr i64 %250 to ptr
  store ptr %251, ptr %2, align 8
  %252 = load i64, ptr %11, align 4
  %253 = and i64 %252, 536870911
  %254 = sub nsw i64 0, %253
  %255 = getelementptr inbounds %struct.Gia_Obj_t_, ptr %11, i64 %254
  %256 = lshr i64 %252, 29
  %257 = and i64 %256, 1
  %258 = ptrtoint ptr %255 to i64
  %259 = xor i64 %257, %258
  %260 = inttoptr i64 %259 to ptr
  br label %289

261:                                              ; preds = %234
  %262 = lshr i64 %12, 29
  %263 = and i64 %262, 1
  %264 = ptrtoint ptr %94 to i64
  %265 = xor i64 %263, %264
  %266 = xor i64 %265, 1
  %267 = inttoptr i64 %266 to ptr
  store ptr %267, ptr %1, align 8
  %268 = load i64, ptr %11, align 4
  %269 = lshr i64 %268, 32
  %270 = and i64 %269, 536870911
  %271 = sub nsw i64 0, %270
  %272 = getelementptr inbounds %struct.Gia_Obj_t_, ptr %11, i64 %271
  %273 = lshr i64 %268, 61
  %274 = and i64 %273, 1
  %275 = ptrtoint ptr %272 to i64
  %276 = xor i64 %274, %275
  %277 = xor i64 %276, 1
  %278 = inttoptr i64 %277 to ptr
  store ptr %278, ptr %2, align 8
  %279 = load i64, ptr %7, align 4
  %280 = lshr i64 %279, 32
  %281 = and i64 %280, 536870911
  %282 = sub nsw i64 0, %281
  %283 = getelementptr inbounds %struct.Gia_Obj_t_, ptr %7, i64 %282
  %284 = lshr i64 %279, 61
  %285 = and i64 %284, 1
  %286 = ptrtoint ptr %283 to i64
  %287 = xor i64 %285, %286
  %288 = inttoptr i64 %287 to ptr
  br label %289

289:                                              ; preds = %227, %225, %261, %235, %199, %171, %134, %107, %61, %31
  %.0 = phi ptr [ %60, %31 ], [ %90, %61 ], [ %133, %107 ], [ %160, %134 ], [ %198, %171 ], [ %224, %199 ], [ %260, %235 ], [ %288, %261 ], [ null, %225 ], [ null, %227 ]
  ret ptr %.0
}